; ModuleID = '44/1396.c'
source_filename = "44/1396.c"
target datalayout = "e-m:e-p270:32:32-p271:32:32-p272:64:64-i64:64-f80:128-n8:16:32:64-S128"
target triple = "x86_64-pc-linux-gnu"

@.str = private unnamed_addr constant [3 x i8] c"%d\00", align 1
@.str.1 = private unnamed_addr constant [4 x i8] c"%d\0A\00", align 1

; Function Attrs: noinline nounwind uwtable
define dso_local i32 @main() #0 {
  %1 = alloca i32, align 4
  %2 = alloca i32, align 4
  %3 = alloca i32, align 4
  %4 = alloca i32, align 4
  store i32 0, i32* %1, align 4
  store i32 0, i32* %4, align 4
  br label %5

5:                                                ; preds = %24, %0
  %6 = load i32, i32* %4, align 4
  %7 = icmp slt i32 %6, 6
  br i1 %7, label %8, label %27

8:                                                ; preds = %5
  %9 = call i32 (i8*, ...) @__isoc99_scanf(i8* getelementptr inbounds ([3 x i8], [3 x i8]* @.str, i64 0, i64 0), i32* %2)
  %10 = load i32, i32* %2, align 4
  %11 = icmp sgt i32 %10, 0
  br i1 %11, label %12, label %15

12:                                               ; preds = %8
  %13 = load i32, i32* %2, align 4
  %14 = call i32 @f(i32 %13, i32 0)
  store i32 %14, i32* %3, align 4
  br label %21

15:                                               ; preds = %8
  %16 = load i32, i32* %2, align 4
  %17 = sub nsw i32 0, %16
  store i32 %17, i32* %2, align 4
  %18 = load i32, i32* %2, align 4
  %19 = call i32 @f(i32 %18, i32 0)
  %20 = sub nsw i32 0, %19
  store i32 %20, i32* %3, align 4
  br label %21

21:                                               ; preds = %15, %12
  %22 = load i32, i32* %3, align 4
  %23 = call i32 (i8*, ...) @printf(i8* getelementptr inbounds ([4 x i8], [4 x i8]* @.str.1, i64 0, i64 0), i32 %22)
  br label %24

24:                                               ; preds = %21
  %25 = load i32, i32* %4, align 4
  %26 = add nsw i32 %25, 1
  store i32 %26, i32* %4, align 4
  br label %5

27:                                               ; preds = %5
  ret i32 0
}

declare dso_local i32 @__isoc99_scanf(i8*, ...) #1

declare dso_local i32 @printf(i8*, ...) #1

; Function Attrs: noinline nounwind uwtable
define dso_local i32 @f(i32 %0, i32 %1) #0 {
  %3 = alloca i32, align 4
  %4 = alloca i32, align 4
  %5 = alloca i32, align 4
  store i32 %0, i32* %4, align 4
  store i32 %1, i32* %5, align 4
  %6 = load i32, i32* %5, align 4
  %7 = mul nsw i32 %6, 10
  %8 = load i32, i32* %4, align 4
  %9 = srem i32 %8, 10
  %10 = add nsw i32 %7, %9
  store i32 %10, i32* %5, align 4
  %11 = load i32, i32* %4, align 4
  %12 = icmp slt i32 %11, 10
  br i1 %12, label %13, label %15

13:                                               ; preds = %2
  %14 = load i32, i32* %5, align 4
  store i32 %14, i32* %3, align 4
  br label %20

15:                                               ; preds = %2
  %16 = load i32, i32* %4, align 4
  %17 = sdiv i32 %16, 10
  %18 = load i32, i32* %5, align 4
  %19 = call i32 @f(i32 %17, i32 %18)
  br label %20

20:                                               ; preds = %13, %15
  %21 = load i32, i32* %3, align 4
  ret i32 %21
}


!llvm.module.flags = !{!0}
!llvm.ident = !{!1}

!0 = !{i32 1, !"wchar_size", i32 4}
!1 = !{!"clang version 10.0.0-4ubuntu1 "}
